target datalayout = "e-m:e-p270:32:32-p271:32:32-p272:64:64-i64:64-i128:128-f80:128-n8:16:32:64-S128"
target triple = "x86_64-pc-linux-gnu"

%struct._object = type { %union.anon, ptr }
%union.anon = type { i64 }
%struct.PyVarObject = type { %struct._object, i64 }
%struct.arrayobject = type { %struct.PyVarObject, ptr, i64, ptr, ptr, i64 }

@.str.28 = private unnamed_addr constant [29 x i8] c"h;array item must be integer\00", align 1
@PyExc_OverflowError = external global ptr, align 8
@.str.29 = private unnamed_addr constant [33 x i8] c"signed char is less than minimum\00", align 1
@.str.30 = private unnamed_addr constant [36 x i8] c"signed char is greater than maximum\00", align 1

; Function Attrs: nounwind uwtable
define internal i32 @b_setitem(ptr noundef %0, i64 noundef %1, ptr noundef %2) #0 {
  %4 = alloca i32, align 4
  %5 = alloca ptr, align 8
  %6 = alloca i64, align 8
  %7 = alloca ptr, align 8
  %8 = alloca i16, align 2
  %9 = alloca i32, align 4
  store ptr %0, ptr %5, align 8, !tbaa !68
  store i64 %1, ptr %6, align 8, !tbaa !21
  store ptr %2, ptr %7, align 8, !tbaa !3
  call void @llvm.lifetime.start.p0(i64 2, ptr %8) #8
  %10 = load ptr, ptr %7, align 8, !tbaa !3
  %11 = call i32 (ptr, ptr, ...) @PyArg_Parse(ptr noundef %10, ptr noundef @.str.28, ptr noundef %8)
  %12 = icmp ne i32 %11, 0
  br i1 %12, label %14, label %13

13:                                               ; preds = %3
  store i32 -1, ptr %4, align 4
  store i32 1, ptr %9, align 4
  br label %40

14:                                               ; preds = %3
  %15 = load i16, ptr %8, align 2, !tbaa !37
  %16 = sext i16 %15 to i32
  %17 = icmp slt i32 %16, -128
  br i1 %17, label %18, label %20

18:                                               ; preds = %14
  %19 = load ptr, ptr @PyExc_OverflowError, align 8, !tbaa !3
  call void @PyErr_SetString(ptr noundef %19, ptr noundef @.str.29)
  store i32 -1, ptr %4, align 4
  store i32 1, ptr %9, align 4
  br label %40

20:                                               ; preds = %14
  %21 = load i16, ptr %8, align 2, !tbaa !37
  %22 = sext i16 %21 to i32
  %23 = icmp sgt i32 %22, 127
  br i1 %23, label %24, label %26

24:                                               ; preds = %20
  %25 = load ptr, ptr @PyExc_OverflowError, align 8, !tbaa !3
  call void @PyErr_SetString(ptr noundef %25, ptr noundef @.str.30)
  store i32 -1, ptr %4, align 4
  store i32 1, ptr %9, align 4
  br label %40

26:                                               ; preds = %20
  br label %27

27:                                               ; preds = %26
  br label %28

28:                                               ; preds = %27
  %29 = load i64, ptr %6, align 8, !tbaa !21
  %30 = icmp sge i64 %29, 0
  br i1 %30, label %31, label %39

31:                                               ; preds = %28
  %32 = load i16, ptr %8, align 2, !tbaa !37
  %33 = trunc i16 %32 to i8
  %34 = load ptr, ptr %5, align 8, !tbaa !68
  %35 = getelementptr inbounds nuw %struct.arrayobject, ptr %34, i32 0, i32 1
  %36 = load ptr, ptr %35, align 8, !tbaa !70
  %37 = load i64, ptr %6, align 8, !tbaa !21
  %38 = getelementptr i8, ptr %36, i64 %37
  store i8 %33, ptr %38, align 1, !tbaa !36
  br label %39

39:                                               ; preds = %31, %28
  store i32 0, ptr %4, align 4
  store i32 1, ptr %9, align 4
  br label %40

40:                                               ; preds = %39, %24, %18, %13
  call void @llvm.lifetime.end.p0(i64 2, ptr %8) #8
  %41 = load i32, ptr %4, align 4
  ret i32 %41
}