; Function Attrs: nounwind uwtable
define internal range(i32 -1, 1) i32 @b_setitem(ptr noundef readonly captures(none) %0, i64 noundef %1, ptr noundef %2) #0 {
  %4 = alloca i16, align 2
  call void @llvm.lifetime.start.p0(i64 2, ptr nonnull %4) #11
  %5 = call i32 (ptr, ptr, ...) @PyArg_Parse(ptr noundef %2, ptr noundef nonnull @.str.28, ptr noundef nonnull %4) #11
  %.not = icmp eq i32 %5, 0
  br i1 %.not, label %22, label %6

6:                                                ; preds = %3
  %7 = load i16, ptr %4, align 2, !tbaa !33
  %8 = icmp slt i16 %7, -128
  br i1 %8, label %9, label %11

9:                                                ; preds = %6
  %10 = load ptr, ptr @PyExc_OverflowError, align 8, !tbaa !18
  call void @PyErr_SetString(ptr noundef %10, ptr noundef nonnull @.str.29) #11
  br label %22

11:                                               ; preds = %6
  %12 = icmp sgt i16 %7, 127
  br i1 %12, label %13, label %15

13:                                               ; preds = %11
  %14 = load ptr, ptr @PyExc_OverflowError, align 8, !tbaa !18
  call void @PyErr_SetString(ptr noundef %14, ptr noundef nonnull @.str.30) #11
  br label %22

15:                                               ; preds = %11
  %16 = icmp sgt i64 %1, -1
  br i1 %16, label %17, label %22

17:                                               ; preds = %15
  %18 = trunc i16 %7 to i8
  %19 = getelementptr inbounds nuw i8, ptr %0, i64 24
  %20 = load ptr, ptr %19, align 8, !tbaa !53
  %21 = getelementptr i8, ptr %20, i64 %1
  store i8 %18, ptr %21, align 1, !tbaa !17
  br label %22

22:                                               ; preds = %15, %17, %3, %13, %9
  %.0 = phi i32 [ -1, %9 ], [ -1, %13 ], [ -1, %3 ], [ 0, %17 ], [ 0, %15 ]
  call void @llvm.lifetime.end.p0(i64 2, ptr nonnull %4) #11
  ret i32 %.0
}